target datalayout = "e-m:e-p270:32:32-p271:32:32-p272:64:64-i64:64-i128:128-f80:128-n8:16:32:64-S128"
target triple = "x86_64-pc-linux-gnu"

%"struct.duckdb_hll::robj" = type { ptr }
%"struct.duckdb_hll::hllhdr" = type { [4 x i8], i8, [3 x i8], [8 x i8], [1 x i8] }

; Function Attrs: mustprogress nounwind uwtable
define void @_ZN10duckdb_hll12set_registerEPNS_4robjEmh(ptr noundef %0, i64 noundef %1, i8 noundef zeroext %2) #0 {
  %4 = alloca ptr, align 8
  %5 = alloca i64, align 8
  %6 = alloca i8, align 1
  %7 = alloca ptr, align 8
  %8 = alloca ptr, align 8
  %9 = alloca i64, align 8
  %10 = alloca i64, align 8
  %11 = alloca i64, align 8
  %12 = alloca i64, align 8
  store ptr %0, ptr %4, align 8, !tbaa !22
  store i64 %1, ptr %5, align 8, !tbaa !9
  store i8 %2, ptr %6, align 1, !tbaa !15
  call void @llvm.lifetime.start.p0(i64 8, ptr %7) #10
  %13 = load ptr, ptr %4, align 8, !tbaa !22
  %14 = getelementptr inbounds nuw %"struct.duckdb_hll::robj", ptr %13, i32 0, i32 0
  %15 = load ptr, ptr %14, align 8, !tbaa !24
  store ptr %15, ptr %7, align 8, !tbaa !26
  br label %16

16:                                               ; preds = %3
  call void @llvm.lifetime.start.p0(i64 8, ptr %8) #10
  %17 = load ptr, ptr %7, align 8, !tbaa !26
  %18 = getelementptr inbounds nuw %"struct.duckdb_hll::hllhdr", ptr %17, i32 0, i32 4
  %19 = getelementptr inbounds [1 x i8], ptr %18, i64 0, i64 0
  %20 = getelementptr inbounds i8, ptr %19, i64 1
  store ptr %20, ptr %8, align 8, !tbaa !11
  call void @llvm.lifetime.start.p0(i64 8, ptr %9) #10
  %21 = load i64, ptr %5, align 8, !tbaa !9
  %22 = mul i64 %21, 6
  %23 = udiv i64 %22, 8
  store i64 %23, ptr %9, align 8, !tbaa !9
  call void @llvm.lifetime.start.p0(i64 8, ptr %10) #10
  %24 = load i64, ptr %5, align 8, !tbaa !9
  %25 = mul i64 %24, 6
  %26 = and i64 %25, 7
  store i64 %26, ptr %10, align 8, !tbaa !9
  call void @llvm.lifetime.start.p0(i64 8, ptr %11) #10
  %27 = load i64, ptr %10, align 8, !tbaa !9
  %28 = sub i64 8, %27
  store i64 %28, ptr %11, align 8, !tbaa !9
  call void @llvm.lifetime.start.p0(i64 8, ptr %12) #10
  %29 = load i8, ptr %6, align 1, !tbaa !15
  %30 = zext i8 %29 to i64
  store i64 %30, ptr %12, align 8, !tbaa !9
  %31 = load i64, ptr %10, align 8, !tbaa !9
  %32 = trunc i64 %31 to i32
  %33 = shl i32 63, %32
  %34 = xor i32 %33, -1
  %35 = load ptr, ptr %8, align 8, !tbaa !11
  %36 = load i64, ptr %9, align 8, !tbaa !9
  %37 = getelementptr inbounds nuw i8, ptr %35, i64 %36
  %38 = load i8, ptr %37, align 1, !tbaa !15
  %39 = zext i8 %38 to i32
  %40 = and i32 %39, %34
  %41 = trunc i32 %40 to i8
  store i8 %41, ptr %37, align 1, !tbaa !15
  %42 = load i64, ptr %12, align 8, !tbaa !9
  %43 = load i64, ptr %10, align 8, !tbaa !9
  %44 = shl i64 %42, %43
  %45 = load ptr, ptr %8, align 8, !tbaa !11
  %46 = load i64, ptr %9, align 8, !tbaa !9
  %47 = getelementptr inbounds nuw i8, ptr %45, i64 %46
  %48 = load i8, ptr %47, align 1, !tbaa !15
  %49 = zext i8 %48 to i64
  %50 = or i64 %49, %44
  %51 = trunc i64 %50 to i8
  store i8 %51, ptr %47, align 1, !tbaa !15
  %52 = load i64, ptr %11, align 8, !tbaa !9
  %53 = trunc i64 %52 to i32
  %54 = ashr i32 63, %53
  %55 = xor i32 %54, -1
  %56 = load ptr, ptr %8, align 8, !tbaa !11
  %57 = load i64, ptr %9, align 8, !tbaa !9
  %58 = add i64 %57, 1
  %59 = getelementptr inbounds nuw i8, ptr %56, i64 %58
  %60 = load i8, ptr %59, align 1, !tbaa !15
  %61 = zext i8 %60 to i32
  %62 = and i32 %61, %55
  %63 = trunc i32 %62 to i8
  store i8 %63, ptr %59, align 1, !tbaa !15
  %64 = load i64, ptr %12, align 8, !tbaa !9
  %65 = load i64, ptr %11, align 8, !tbaa !9
  %66 = lshr i64 %64, %65
  %67 = load ptr, ptr %8, align 8, !tbaa !11
  %68 = load i64, ptr %9, align 8, !tbaa !9
  %69 = add i64 %68, 1
  %70 = getelementptr inbounds nuw i8, ptr %67, i64 %69
  %71 = load i8, ptr %70, align 1, !tbaa !15
  %72 = zext i8 %71 to i64
  %73 = or i64 %72, %66
  %74 = trunc i64 %73 to i8
  store i8 %74, ptr %70, align 1, !tbaa !15
  call void @llvm.lifetime.end.p0(i64 8, ptr %12) #10
  call void @llvm.lifetime.end.p0(i64 8, ptr %11) #10
  call void @llvm.lifetime.end.p0(i64 8, ptr %10) #10
  call void @llvm.lifetime.end.p0(i64 8, ptr %9) #10
  call void @llvm.lifetime.end.p0(i64 8, ptr %8) #10
  br label %75

75:                                               ; preds = %16
  br label %76

76:                                               ; preds = %75
  call void @llvm.lifetime.end.p0(i64 8, ptr %7) #10
  ret void
}