; Function Attrs: mustprogress nofree norecurse nosync nounwind willreturn memory(readwrite, inaccessiblemem: none) uwtable
define void @_ZN10duckdb_hll12set_registerEPNS_4robjEmh(ptr noundef readonly captures(none) %0, i64 noundef %1, i8 noundef zeroext %2) local_unnamed_addr #19 {
  %4 = load ptr, ptr %0, align 8, !tbaa !14
  %5 = getelementptr inbounds nuw i8, ptr %4, i64 17
  %6 = mul i64 %1, 6
  %7 = lshr i64 %6, 3
  %8 = and i64 %6, 6
  %9 = sub nuw nsw i64 8, %8
  %10 = zext i8 %2 to i64
  %11 = trunc nuw nsw i64 %8 to i8
  %12 = shl i8 63, %11
  %13 = xor i8 %12, -1
  %14 = getelementptr inbounds nuw i8, ptr %5, i64 %7
  %15 = load i8, ptr %14, align 1, !tbaa !9
  %16 = and i8 %15, %13
  %17 = shl nuw nsw i64 %10, %8
  %18 = trunc i64 %17 to i8
  %19 = or i8 %16, %18
  store i8 %19, ptr %14, align 1, !tbaa !9
  %20 = trunc nuw nsw i64 %9 to i16
  %21 = ashr i16 -64, %20
  %22 = getelementptr inbounds nuw i8, ptr %14, i64 1
  %23 = load i8, ptr %22, align 1, !tbaa !9
  %24 = trunc nsw i16 %21 to i8
  %25 = and i8 %23, %24
  %26 = lshr i64 %10, %9
  %27 = trunc nuw nsw i64 %26 to i8
  %28 = or i8 %25, %27
  store i8 %28, ptr %22, align 1, !tbaa !9
  ret void
}